; Function Attrs: nounwind uwtable
define internal void @cf_socket_destroy(ptr noundef %0, ptr noundef %1) #2 {
  %3 = getelementptr inbounds nuw i8, ptr %0, i64 16
  %4 = load ptr, ptr %3, align 8
  tail call void @cf_socket_close(ptr noundef %0, ptr noundef %1)
  %.not = icmp eq ptr %1, null
  br i1 %.not, label %15, label %5

5:                                                ; preds = %2
  %6 = getelementptr inbounds nuw i8, ptr %1, i64 2642
  %7 = load i64, ptr %6, align 2
  %8 = and i64 %7, 268435456
  %.not14 = icmp eq i64 %8, 0
  br i1 %.not14, label %15, label %9

9:                                                ; preds = %5
  %10 = load ptr, ptr %0, align 8
  %11 = getelementptr inbounds nuw i8, ptr %10, i64 12
  %12 = load i32, ptr %11, align 4
  %13 = icmp sgt i32 %12, 0
  br i1 %13, label %14, label %15

14:                                               ; preds = %9
  tail call void (ptr, ptr, ptr, ...) @Curl_trc_cf_infof(ptr noundef nonnull %1, ptr noundef nonnull %0, ptr noundef nonnull @.str.6) #13
  br label %15

15:                                               ; preds = %2, %5, %9, %14
  %16 = getelementptr inbounds nuw i8, ptr %4, i64 160
  tail call void @Curl_bufq_free(ptr noundef nonnull %16) #13
  %17 = load ptr, ptr @Curl_cfree, align 8
  tail call void %17(ptr noundef %4) #13
  store ptr null, ptr %3, align 8
  ret void
}